(dp0
S'98'
p1
S'http://x.co/otach98'
p2
sS'116'
p3
S'removed'
p4
sS'Channel: 116 (Updated:6/26-ABC 22 HD)'
p5
g4
sS'93'
p6
S'http://x.co/otach93'
p7
sS'81'
p8
S'http://x.co/otach81'
p9
sS'items_dict'
p10
(dp11
sS'84'
p12
S'http://x.co/otach84'
p13
s.