(dp0
S'Plex-Pin-Pinhttp://93.174.95.125:1935/edge/_definst_/rgyus7ao2ullmbt/playlist.m3u8?wowzasessionid=1419906325'
p1
S'86Key4SplitESPN 2 HDKey4Splithttp://93.174.95.125:1935/edge/_definst_/rgyus7ao2ullmbt/playlist.m3u8?wowzasessionid=1419906325'
p2
sS'Plex-Pin-Pinhttp://93.174.95.125:1935/edge/_definst_/xoaaohmeuajfeyf/playlist.m3u8?wowzasessionid=1419879934'
p3
S'84Key4SplitUpdated:6/26-ESPN HD[alternative]Key4Splithttp://93.174.95.125:1935/edge/_definst_/xoaaohmeuajfeyf/playlist.m3u8?wowzasessionid=1419879934'
p4
sS'Plex-Pin-Pinhttp://93.174.95.125:1935/edge/_definst_/nz7l9vc5nv1og7b/playlist.m3u8?wowzasessionid=1419880374'
p5
S'116Key4SplitUpdated:6/26-ABC 22 HDKey4Splithttp://93.174.95.125:1935/edge/_definst_/nz7l9vc5nv1og7b/playlist.m3u8?wowzasessionid=1419880374'
p6
sS'Plex-Pin-Pinhttp://93.174.95.125:1935/edge/_definst_/gj65q2rg18tpmut/playlist.m3u8?wowzasessionid=1419811602'
p7
S'95Key4SplitUpdated:6/26-HGTVKey4Splithttp://93.174.95.125:1935/edge/_definst_/gj65q2rg18tpmut/playlist.m3u8?wowzasessionid=1419811602'
p8
sS'98'
p9
S'http://x.co/otach98'
p10
sS'116'
p11
S'removed'
p12
sS'Channel: 116 (Updated:6/26-ABC 22 HD)'
p13
g12
sS'Plex-Pin-Pinhttp://93.174.95.125:1935/edge/_definst_/bwbop58ixz281wv/chunklist.m3u8?wowzasessionid=1419875151'
p14
S'98Key4SplitUpdated:6/26-Showtime HDKey4Splithttp://93.174.95.125:1935/edge/_definst_/bwbop58ixz281wv/chunklist.m3u8?wowzasessionid=1419875151'
p15
sS'Plex-Pin-Pinhttp://93.174.95.125:1935/edge/_definst_/z28ie9oqoku4qoy/playlist.m3u8?wowzasessionid=1419879571'
p16
S'93Key4SplitUpdated:6/26-HBO HDKey4Splithttp://93.174.95.125:1935/edge/_definst_/z28ie9oqoku4qoy/playlist.m3u8?wowzasessionid=1419879571'
p17
sS'Plex-Pin-Pinhttp://93.174.95.125:1935/edge/_definst_/h5eovaj1jeegluq/playlist.m3u8?wowzasessionid=1420249300'
p18
S'81Key4SplitUpdated:6/26-USA NetworkKey4Splithttp://93.174.95.125:1935/edge/_definst_/h5eovaj1jeegluq/playlist.m3u8?wowzasessionid=1420249300'
p19
sS'93'
p20
S'http://x.co/otach93'
p21
sS'81'
p22
S'http://x.co/otach81'
p23
sS'items_dict'
p24
(dp25
sS'84'
p26
S'http://x.co/otach84'
p27
s.